target datalayout = "e-m:e-p270:32:32-p271:32:32-p272:64:64-i64:64-i128:128-f80:128-n8:16:32:64-S128"
target triple = "x86_64-pc-linux-gnu"

%struct.ZSTD_customMem = type { ptr, ptr, ptr }
%struct.ZSTD_DCtx_s = type { ptr, ptr, ptr, ptr, %struct.ZSTD_entropyDTables_t, [640 x i32], ptr, ptr, ptr, ptr, i64, %struct.ZSTD_FrameHeader, i64, i64, i32, i32, i32, i32, %struct.XXH64_state_s, i64, i32, i32, i32, ptr, %struct.ZSTD_customMem, i64, i64, i64, i32, i32, ptr, ptr, i32, i32, i32, ptr, i32, i32, i32, i32, ptr, i64, i64, i64, ptr, i64, i64, i64, i64, ptr, i32, i32, i32, i32, i32, %struct.ZSTD_outBuffer_s, ptr, ptr, i32, [65568 x i8], [18 x i8], i64, i64 }
%struct.ZSTD_entropyDTables_t = type { [513 x %struct.ZSTD_seqSymbol], [257 x %struct.ZSTD_seqSymbol], [513 x %struct.ZSTD_seqSymbol], [4097 x i32], [3 x i32], [157 x i32] }
%struct.ZSTD_seqSymbol = type { i16, i8, i8, i32 }
%struct.ZSTD_FrameHeader = type { i64, i64, i32, i32, i32, i32, i32, i32, i32 }
%struct.XXH64_state_s = type { i64, [4 x i64], [4 x i64], i32, i32, i64 }
%struct.ZSTD_outBuffer_s = type { ptr, i64, i64 }

; Function Attrs: inlinehint nounwind uwtable
define internal i32 @ZSTD_countLeadingZeros32(i32 noundef %0) #4 {
  %2 = alloca i32, align 4
  store i32 %0, ptr %2, align 4, !tbaa !43
  %3 = load i32, ptr %2, align 4, !tbaa !43
  %4 = call i32 @llvm.ctlz.i32(i32 %3, i1 true)
  ret i32 %4
}

; Function Attrs: inlinehint nounwind uwtable
define internal i32 @ZSTD_highbit32(i32 noundef %0) #4 {
  %2 = alloca i32, align 4
  store i32 %0, ptr %2, align 4, !tbaa !43
  %3 = load i32, ptr %2, align 4, !tbaa !43
  %4 = call i32 @ZSTD_countLeadingZeros32(i32 noundef %3)
  %5 = sub i32 31, %4
  ret i32 %5
}

; Function Attrs: nounwind uwtable
define i64 @ZSTD_DCtx_getParameter(ptr noundef %0, i32 noundef %1, ptr noundef %2) #0 {
  %4 = alloca i64, align 8
  %5 = alloca ptr, align 8
  %6 = alloca i32, align 4
  %7 = alloca ptr, align 8
  store ptr %0, ptr %5, align 8, !tbaa !3
  store i32 %1, ptr %6, align 4, !tbaa !43
  store ptr %2, ptr %7, align 8, !tbaa !63
  %8 = load i32, ptr %6, align 4, !tbaa !43
  switch i32 %8, label %46 [
    i32 100, label %9
    i32 1000, label %16
    i32 1001, label %21
    i32 1002, label %26
    i32 1003, label %31
    i32 1004, label %36
    i32 1005, label %41
  ]

9:                                                ; preds = %3
  %10 = load ptr, ptr %5, align 8, !tbaa !3
  %11 = getelementptr inbounds nuw %struct.ZSTD_DCtx_s, ptr %10, i32 0, i32 43
  %12 = load i64, ptr %11, align 8, !tbaa !122
  %13 = trunc i64 %12 to i32
  %14 = call i32 @ZSTD_highbit32(i32 noundef %13)
  %15 = load ptr, ptr %7, align 8, !tbaa !63
  store i32 %14, ptr %15, align 4, !tbaa !43
  store i64 0, ptr %4, align 8
  br label %57

16:                                               ; preds = %3
  %17 = load ptr, ptr %5, align 8, !tbaa !3
  %18 = getelementptr inbounds nuw %struct.ZSTD_DCtx_s, ptr %17, i32 0, i32 20
  %19 = load i32, ptr %18, align 8, !tbaa !77
  %20 = load ptr, ptr %7, align 8, !tbaa !63
  store i32 %19, ptr %20, align 4, !tbaa !43
  store i64 0, ptr %4, align 8
  br label %57

21:                                               ; preds = %3
  %22 = load ptr, ptr %5, align 8, !tbaa !3
  %23 = getelementptr inbounds nuw %struct.ZSTD_DCtx_s, ptr %22, i32 0, i32 54
  %24 = load i32, ptr %23, align 8, !tbaa !124
  %25 = load ptr, ptr %7, align 8, !tbaa !63
  store i32 %24, ptr %25, align 4, !tbaa !43
  store i64 0, ptr %4, align 8
  br label %57

26:                                               ; preds = %3
  %27 = load ptr, ptr %5, align 8, !tbaa !3
  %28 = getelementptr inbounds nuw %struct.ZSTD_DCtx_s, ptr %27, i32 0, i32 21
  %29 = load i32, ptr %28, align 4, !tbaa !95
  %30 = load ptr, ptr %7, align 8, !tbaa !63
  store i32 %29, ptr %30, align 4, !tbaa !43
  store i64 0, ptr %4, align 8
  br label %57

31:                                               ; preds = %3
  %32 = load ptr, ptr %5, align 8, !tbaa !3
  %33 = getelementptr inbounds nuw %struct.ZSTD_DCtx_s, ptr %32, i32 0, i32 36
  %34 = load i32, ptr %33, align 8, !tbaa !92
  %35 = load ptr, ptr %7, align 8, !tbaa !63
  store i32 %34, ptr %35, align 4, !tbaa !43
  store i64 0, ptr %4, align 8
  br label %57

36:                                               ; preds = %3
  %37 = load ptr, ptr %5, align 8, !tbaa !3
  %38 = getelementptr inbounds nuw %struct.ZSTD_DCtx_s, ptr %37, i32 0, i32 37
  %39 = load i32, ptr %38, align 4, !tbaa !125
  %40 = load ptr, ptr %7, align 8, !tbaa !63
  store i32 %39, ptr %40, align 4, !tbaa !43
  store i64 0, ptr %4, align 8
  br label %57

41:                                               ; preds = %3
  %42 = load ptr, ptr %5, align 8, !tbaa !3
  %43 = getelementptr inbounds nuw %struct.ZSTD_DCtx_s, ptr %42, i32 0, i32 38
  %44 = load i32, ptr %43, align 8, !tbaa !126
  %45 = load ptr, ptr %7, align 8, !tbaa !63
  store i32 %44, ptr %45, align 4, !tbaa !43
  store i64 0, ptr %4, align 8
  br label %57

46:                                               ; preds = %3
  br label %47

47:                                               ; preds = %46
  br label %48

48:                                               ; preds = %47
  br label %49

49:                                               ; preds = %48
  br label %50

50:                                               ; preds = %49
  br label %51

51:                                               ; preds = %50
  br label %52

52:                                               ; preds = %51
  br label %53

53:                                               ; preds = %52
  br label %54

54:                                               ; preds = %53
  br label %55

55:                                               ; preds = %54
  br label %56

56:                                               ; preds = %55
  store i64 -40, ptr %4, align 8
  br label %57

57:                                               ; preds = %9, %16, %21, %26, %31, %36, %41, %56
  %58 = load i64, ptr %4, align 8
  ret i64 %58
}